; Function Attrs: nounwind uwtable
define void @_ZdaPvmSt11align_val_t(ptr noundef %0, i64 noundef %1, i64 noundef %2) local_unnamed_addr #3 {
  %4 = ptrtoint ptr %0 to i64
  %5 = add i64 %4, -1
  %6 = and i64 %5, -33554432
  %7 = inttoptr i64 %6 to ptr
  %8 = icmp slt i64 %5, 33554432
  %9 = icmp eq i64 %6, 0
  %10 = or i1 %8, %9
  br i1 %10, label %mi_free_size_aligned.exit, label %11, !prof !18

11:                                               ; preds = %3
  %12 = tail call ptr @llvm.thread.pointer()
  %13 = ptrtoint ptr %12 to i64
  %14 = getelementptr inbounds nuw i8, ptr %7, i64 280
  %15 = load atomic i64, ptr %14 monotonic, align 8
  %16 = icmp eq i64 %15, %13
  %17 = sub i64 %4, %6
  %18 = lshr i64 %17, 16
  %19 = getelementptr inbounds nuw i8, ptr %7, i64 288
  %20 = getelementptr inbounds nuw [513 x %struct.mi_page_s], ptr %19, i64 0, i64 %18
  %21 = getelementptr inbounds nuw i8, ptr %20, i64 4
  %22 = load i32, ptr %21, align 4, !tbaa !23
  %23 = zext i32 %22 to i64
  %24 = sub nsw i64 0, %23
  %25 = getelementptr inbounds i8, ptr %20, i64 %24
  br i1 %16, label %26, label %40, !prof !8

26:                                               ; preds = %11
  %27 = getelementptr inbounds nuw i8, ptr %25, i64 14
  %28 = load i8, ptr %27, align 2, !tbaa !24
  %29 = icmp eq i8 %28, 0
  br i1 %29, label %30, label %39, !prof !8

30:                                               ; preds = %26
  %31 = getelementptr inbounds nuw i8, ptr %25, i64 24
  %32 = load ptr, ptr %31, align 8, !tbaa !25
  %33 = ptrtoint ptr %32 to i64
  store i64 %33, ptr %0, align 8, !tbaa !19
  store ptr %0, ptr %31, align 8, !tbaa !25
  %34 = getelementptr inbounds nuw i8, ptr %25, i64 32
  %35 = load i16, ptr %34, align 8, !tbaa !21
  %36 = add i16 %35, -1
  store i16 %36, ptr %34, align 8, !tbaa !21
  %37 = icmp eq i16 %36, 0
  br i1 %37, label %38, label %mi_free_size_aligned.exit, !prof !18

38:                                               ; preds = %30
  tail call void @_mi_page_retire(ptr noundef nonnull %25) #19
  br label %mi_free_size_aligned.exit

39:                                               ; preds = %26
  tail call fastcc void @mi_free_generic_local(ptr noundef nonnull %25, ptr noundef %0) #20
  br label %mi_free_size_aligned.exit

40:                                               ; preds = %11
  tail call fastcc void @mi_free_generic_mt(ptr noundef nonnull %25, ptr noundef nonnull %7, ptr noundef %0) #20
  br label %mi_free_size_aligned.exit

mi_free_size_aligned.exit:                        ; preds = %3, %30, %38, %39, %40
  ret void
}